target datalayout = "e-m:e-p270:32:32-p271:32:32-p272:64:64-i64:64-i128:128-f80:128-n8:16:32:64-S128"
target triple = "x86_64-pc-linux-gnu"

%class.PhaseSender = type { %class.PhaseVisitor }
%class.PhaseVisitor = type { ptr }
%class.TimePartitionPhasesIterator = type <{ ptr, ptr, i32, [4 x i8] }>

@_ZTV11PhaseSender = linkonce_odr hidden unnamed_addr constant { [3 x ptr] } { [3 x ptr] [ptr null, ptr null, ptr @_ZN11PhaseSender5visitEP7GCPhase] }, comdat, align 8
@_ZTV12PhaseVisitor = linkonce_odr hidden unnamed_addr constant { [3 x ptr] } { [3 x ptr] [ptr null, ptr null, ptr @__cxa_pure_virtual] }, comdat, align 8
@_ZTV27TimePartitionPhasesIterator = external unnamed_addr constant { [4 x ptr] }, align 8

; Function Attrs: mustprogress nounwind uwtable
define linkonce_odr hidden void @_ZN12PhaseVisitorC2Ev(ptr noundef nonnull align 8 dereferenceable(8) %0) unnamed_addr #1 comdat align 2 {
  %2 = alloca ptr, align 8
  store ptr %0, ptr %2, align 8
  %3 = load ptr, ptr %2, align 8
  store ptr getelementptr inbounds inrange(-16, 8) ({ [3 x ptr] }, ptr @_ZTV12PhaseVisitor, i32 0, i32 0, i32 2), ptr %3, align 8
  ret void
}

; Function Attrs: mustprogress nounwind uwtable
define linkonce_odr hidden void @_ZN7GCPhase6acceptEP12PhaseVisitor(ptr noundef nonnull align 8 dereferenceable(52) %0, ptr noundef %1) #1 comdat align 2 {
  %3 = alloca ptr, align 8
  %4 = alloca ptr, align 8
  store ptr %0, ptr %3, align 8
  store ptr %1, ptr %4, align 8
  %5 = load ptr, ptr %3, align 8
  %6 = load ptr, ptr %4, align 8
  %7 = load ptr, ptr %6, align 8
  %8 = getelementptr inbounds ptr, ptr %7, i64 0
  %9 = load ptr, ptr %8, align 8
  call void %9(ptr noundef nonnull align 8 dereferenceable(8) %6, ptr noundef %5)
  ret void
}

; Function Attrs: mustprogress nounwind uwtable
define linkonce_odr hidden void @_ZN27TimePartitionPhasesIteratorC2EP14TimePartitions(ptr noundef nonnull align 8 dereferenceable(20) %0, ptr noundef %1) unnamed_addr #1 comdat align 2 {
  %3 = alloca ptr, align 8
  %4 = alloca ptr, align 8
  store ptr %0, ptr %3, align 8
  store ptr %1, ptr %4, align 8
  %5 = load ptr, ptr %3, align 8
  store ptr getelementptr inbounds inrange(-16, 16) ({ [4 x ptr] }, ptr @_ZTV27TimePartitionPhasesIterator, i32 0, i32 0, i32 2), ptr %5, align 8
  %6 = getelementptr inbounds %class.TimePartitionPhasesIterator, ptr %5, i32 0, i32 1
  %7 = load ptr, ptr %4, align 8
  store ptr %7, ptr %6, align 8
  %8 = getelementptr inbounds %class.TimePartitionPhasesIterator, ptr %5, i32 0, i32 2
  store i32 0, ptr %8, align 8
  ret void
}

; Function Attrs: mustprogress nounwind uwtable
define linkonce_odr hidden void @_ZN11PhaseSenderC2Ev(ptr noundef nonnull align 8 dereferenceable(8) %0) unnamed_addr #1 comdat align 2 {
  %2 = alloca ptr, align 8
  store ptr %0, ptr %2, align 8
  %3 = load ptr, ptr %2, align 8
  call void @_ZN12PhaseVisitorC2Ev(ptr noundef nonnull align 8 dereferenceable(8) %3) #5
  store ptr getelementptr inbounds inrange(-16, 8) ({ [3 x ptr] }, ptr @_ZTV11PhaseSender, i32 0, i32 0, i32 2), ptr %3, align 8
  ret void
}

; Function Attrs: mustprogress nounwind uwtable
define hidden void @_ZNK8GCTracer17send_phase_eventsEP14TimePartitions(ptr noundef nonnull align 8 dereferenceable(80) %0, ptr noundef %1) #1 align 2 {
  %3 = alloca ptr, align 8
  %4 = alloca ptr, align 8
  %5 = alloca %class.PhaseSender, align 8
  %6 = alloca %class.TimePartitionPhasesIterator, align 8
  %7 = alloca ptr, align 8
  store ptr %0, ptr %3, align 8
  store ptr %1, ptr %4, align 8
  call void @_ZN11PhaseSenderC2Ev(ptr noundef nonnull align 8 dereferenceable(8) %5) #5
  %8 = load ptr, ptr %4, align 8
  call void @_ZN27TimePartitionPhasesIteratorC2EP14TimePartitions(ptr noundef nonnull align 8 dereferenceable(20) %6, ptr noundef %8)
  br label %9

9:                                                ; preds = %11, %2
  %10 = call noundef zeroext i1 @_ZN27TimePartitionPhasesIterator8has_nextEv(ptr noundef nonnull align 8 dereferenceable(20) %6)
  br i1 %10, label %11, label %14

11:                                               ; preds = %9
  %12 = call noundef ptr @_ZN27TimePartitionPhasesIterator4nextEv(ptr noundef nonnull align 8 dereferenceable(20) %6)
  store ptr %12, ptr %7, align 8
  %13 = load ptr, ptr %7, align 8
  call void @_ZN7GCPhase6acceptEP12PhaseVisitor(ptr noundef nonnull align 8 dereferenceable(52) %13, ptr noundef %5)
  br label %9, !llvm.loop !6

14:                                               ; preds = %9
  ret void
}