; Function Attrs: mustprogress nounwind uwtable
define hidden void @_ZNK8GCTracer17send_phase_eventsEP14TimePartitions(ptr nocapture noundef nonnull readnone align 8 dereferenceable(80) %0, ptr noundef %1) local_unnamed_addr #1 align 2 {
  %3 = alloca %class.PhaseSender, align 8
  %4 = alloca %class.TimePartitionPhasesIterator, align 8
  store ptr getelementptr inbounds inrange(-16, 8) (i8, ptr @_ZTV11PhaseSender, i64 16), ptr %3, align 8
  store ptr getelementptr inbounds inrange(-16, 16) (i8, ptr @_ZTV27TimePartitionPhasesIterator, i64 16), ptr %4, align 8
  %5 = getelementptr inbounds i8, ptr %4, i64 8
  store ptr %1, ptr %5, align 8
  %6 = getelementptr inbounds i8, ptr %4, i64 16
  store i32 0, ptr %6, align 8
  %7 = call noundef zeroext i1 @_ZN27TimePartitionPhasesIterator8has_nextEv(ptr noundef nonnull align 8 dereferenceable(20) %4) #11
  br i1 %7, label %.lr.ph, label %._crit_edge

.lr.ph:                                           ; preds = %2, %.lr.ph
  %8 = call noundef ptr @_ZN27TimePartitionPhasesIterator4nextEv(ptr noundef nonnull align 8 dereferenceable(20) %4) #11
  %9 = load ptr, ptr %3, align 8
  %10 = load ptr, ptr %9, align 8
  call void %10(ptr noundef nonnull align 8 dereferenceable(8) %3, ptr noundef nonnull %8) #11
  %11 = call noundef zeroext i1 @_ZN27TimePartitionPhasesIterator8has_nextEv(ptr noundef nonnull align 8 dereferenceable(20) %4) #11
  br i1 %11, label %.lr.ph, label %._crit_edge, !llvm.loop !18

._crit_edge:                                      ; preds = %.lr.ph, %2
  ret void
}